target datalayout = "e-m:e-p270:32:32-p271:32:32-p272:64:64-i64:64-i128:128-f80:128-n8:16:32:64-S128"
target triple = "x86_64-pc-linux-gnu"

%"class.std::__cxx11::basic_string" = type { %"struct.std::__cxx11::basic_string<char>::_Alloc_hider", i64, %union.anon }
%"struct.std::__cxx11::basic_string<char>::_Alloc_hider" = type { ptr }
%union.anon = type { i64, [8 x i8] }
%struct.__va_list_tag = type { i32, i32, ptr, ptr }

@.str = private unnamed_addr constant [2 x i8] c"\0A\00", align 1
@_ZN5Yosys3AST16current_filenameB5cxx11E = external global %"class.std::__cxx11::basic_string", align 8
@.str.6 = private unnamed_addr constant [3 x i8] c"%s\00", align 1

; Function Attrs: mustprogress uwtable
define void @_Z24frontend_verilog_yyerrorPKcz(ptr noundef %0, ...) #5 {
  %2 = alloca ptr, align 8
  %3 = alloca [1 x %struct.__va_list_tag], align 16
  %4 = alloca [1024 x i8], align 16
  %5 = alloca ptr, align 8
  store ptr %0, ptr %2, align 8, !tbaa !27
  call void @llvm.lifetime.start.p0(i64 24, ptr %3) #3
  call void @llvm.lifetime.start.p0(i64 1024, ptr %4) #3
  call void @llvm.lifetime.start.p0(i64 8, ptr %5) #3
  %6 = getelementptr inbounds [1024 x i8], ptr %4, i64 0, i64 0
  store ptr %6, ptr %5, align 8, !tbaa !27
  %7 = getelementptr inbounds [1 x %struct.__va_list_tag], ptr %3, i64 0, i64 0
  call void @llvm.va_start.p0(ptr %7)
  %8 = load ptr, ptr %5, align 8, !tbaa !27
  %9 = getelementptr inbounds [1024 x i8], ptr %4, i64 0, i64 0
  %10 = getelementptr inbounds nuw i8, ptr %9, i64 1024
  %11 = load ptr, ptr %5, align 8, !tbaa !27
  %12 = ptrtoint ptr %10 to i64
  %13 = ptrtoint ptr %11 to i64
  %14 = sub i64 %12, %13
  %15 = load ptr, ptr %2, align 8, !tbaa !27
  %16 = getelementptr inbounds [1 x %struct.__va_list_tag], ptr %3, i64 0, i64 0
  %17 = call i32 @vsnprintf(ptr noundef %8, i64 noundef %14, ptr noundef %15, ptr noundef %16) #3
  %18 = load ptr, ptr %5, align 8, !tbaa !27
  %19 = sext i32 %17 to i64
  %20 = getelementptr inbounds i8, ptr %18, i64 %19
  store ptr %20, ptr %5, align 8, !tbaa !27
  %21 = getelementptr inbounds [1 x %struct.__va_list_tag], ptr %3, i64 0, i64 0
  call void @llvm.va_end.p0(ptr %21)
  %22 = load ptr, ptr %5, align 8, !tbaa !27
  %23 = getelementptr inbounds [1024 x i8], ptr %4, i64 0, i64 0
  %24 = getelementptr inbounds nuw i8, ptr %23, i64 1024
  %25 = load ptr, ptr %5, align 8, !tbaa !27
  %26 = ptrtoint ptr %24 to i64
  %27 = ptrtoint ptr %25 to i64
  %28 = sub i64 %26, %27
  %29 = call i32 (ptr, i64, ptr, ...) @snprintf(ptr noundef %22, i64 noundef %28, ptr noundef @.str) #3
  %30 = load ptr, ptr %5, align 8, !tbaa !27
  %31 = sext i32 %29 to i64
  %32 = getelementptr inbounds i8, ptr %30, i64 %31
  store ptr %32, ptr %5, align 8, !tbaa !27
  %33 = call noundef i32 @_Z29frontend_verilog_yyget_linenov()
  %34 = getelementptr inbounds [1024 x i8], ptr %4, i64 0, i64 0
  call void (ptr, i32, ptr, ...) @_ZN5Yosys14log_file_errorERKNSt7__cxx1112basic_stringIcSt11char_traitsIcESaIcEEEiPKcz(ptr noundef nonnull align 8 dereferenceable(32) @_ZN5Yosys3AST16current_filenameB5cxx11E, i32 noundef %33, ptr noundef @.str.6, ptr noundef %34) #21
  unreachable
}