; Function Attrs: mustprogress noreturn uwtable
define void @_Z24frontend_verilog_yyerrorPKcz(ptr noundef readonly captures(none) %0, ...) local_unnamed_addr #5 {
  %2 = alloca [1 x %struct.__va_list_tag], align 16
  %3 = alloca [1024 x i8], align 16
  call void @llvm.lifetime.start.p0(i64 24, ptr nonnull %2) #29
  call void @llvm.lifetime.start.p0(i64 1024, ptr nonnull %3) #29
  call void @llvm.va_start.p0(ptr nonnull %2)
  %4 = call i32 @vsnprintf(ptr noundef nonnull %3, i64 noundef 1024, ptr noundef %0, ptr noundef nonnull %2) #29
  %5 = sext i32 %4 to i64
  %6 = getelementptr inbounds i8, ptr %3, i64 %5
  call void @llvm.va_end.p0(ptr nonnull %2)
  %gepdiff = sub nsw i64 1024, %5
  %7 = call i32 (ptr, i64, ptr, ...) @snprintf(ptr noundef nonnull %6, i64 noundef %gepdiff, ptr noundef nonnull @.str) #29
  %8 = call noundef i32 @_Z29frontend_verilog_yyget_linenov()
  call void (ptr, i32, ptr, ...) @_ZN5Yosys14log_file_errorERKNSt7__cxx1112basic_stringIcSt11char_traitsIcESaIcEEEiPKcz(ptr noundef nonnull align 8 dereferenceable(32) @_ZN5Yosys3AST16current_filenameB5cxx11E, i32 noundef %8, ptr noundef nonnull @.str.6, ptr noundef nonnull %3) #30
  unreachable
}